target datalayout = "e-m:e-p270:32:32-p271:32:32-p272:64:64-i64:64-i128:128-f80:128-n8:16:32:64-S128"
target triple = "x86_64-pc-linux-gnu"

%struct.KINMemRec = type { double, ptr, ptr, double, double, i32, i32, i64, i64, i64, i64, i32, i32, i32, i32, i32, i32, i32, i32, i32, double, double, double, double, double, double, double, double, double, i32, double, i64, i64, i64, i64, i64, i64, i64, ptr, ptr, ptr, ptr, ptr, ptr, ptr, ptr, ptr, ptr, ptr, ptr, ptr, ptr, ptr, ptr, ptr, ptr, i64, i32, i32, i64, i64, i64, i64, ptr, ptr, ptr, ptr, i32, ptr, double, double, double, double, double, i32, double, double, double, i32, ptr, ptr, ptr, ptr, ptr, ptr }
%struct.KINDlsMemRec = type { i32, i64, i64, i64, i64, i32, ptr, ptr, ptr, ptr, ptr, ptr, i64, i64, i64 }
%struct._DlsMat = type { i32, i64, i64, i64, i64, i64, i64, ptr, i64, ptr }

; Function Attrs: nounwind uwtable
define i32 @kinDlsBandDQJac(i64 noundef %0, i64 noundef %1, i64 noundef %2, ptr noundef %3, ptr noundef %4, ptr noundef %5, ptr noundef %6, ptr noundef %7, ptr noundef %8) #0 {
  %10 = alloca i32, align 4
  %11 = alloca i64, align 8
  %12 = alloca i64, align 8
  %13 = alloca i64, align 8
  %14 = alloca ptr, align 8
  %15 = alloca ptr, align 8
  %16 = alloca ptr, align 8
  %17 = alloca ptr, align 8
  %18 = alloca ptr, align 8
  %19 = alloca ptr, align 8
  %20 = alloca double, align 8
  %21 = alloca double, align 8
  %22 = alloca ptr, align 8
  %23 = alloca ptr, align 8
  %24 = alloca i32, align 4
  %25 = alloca i64, align 8
  %26 = alloca i64, align 8
  %27 = alloca i64, align 8
  %28 = alloca i64, align 8
  %29 = alloca i64, align 8
  %30 = alloca i64, align 8
  %31 = alloca i64, align 8
  %32 = alloca ptr, align 8
  %33 = alloca ptr, align 8
  %34 = alloca ptr, align 8
  %35 = alloca ptr, align 8
  %36 = alloca ptr, align 8
  %37 = alloca ptr, align 8
  %38 = alloca ptr, align 8
  %39 = alloca ptr, align 8
  %40 = alloca i32, align 4
  store i64 %0, ptr %11, align 8, !tbaa !30
  store i64 %1, ptr %12, align 8, !tbaa !30
  store i64 %2, ptr %13, align 8, !tbaa !30
  store ptr %3, ptr %14, align 8, !tbaa !39
  store ptr %4, ptr %15, align 8, !tbaa !39
  store ptr %5, ptr %16, align 8, !tbaa !40
  store ptr %6, ptr %17, align 8, !tbaa !3
  store ptr %7, ptr %18, align 8, !tbaa !39
  store ptr %8, ptr %19, align 8, !tbaa !39
  call void @llvm.lifetime.start.p0(i64 8, ptr %20) #5
  call void @llvm.lifetime.start.p0(i64 8, ptr %21) #5
  call void @llvm.lifetime.start.p0(i64 8, ptr %22) #5
  call void @llvm.lifetime.start.p0(i64 8, ptr %23) #5
  call void @llvm.lifetime.start.p0(i64 4, ptr %24) #5
  call void @llvm.lifetime.start.p0(i64 8, ptr %25) #5
  call void @llvm.lifetime.start.p0(i64 8, ptr %26) #5
  call void @llvm.lifetime.start.p0(i64 8, ptr %27) #5
  call void @llvm.lifetime.start.p0(i64 8, ptr %28) #5
  call void @llvm.lifetime.start.p0(i64 8, ptr %29) #5
  call void @llvm.lifetime.start.p0(i64 8, ptr %30) #5
  call void @llvm.lifetime.start.p0(i64 8, ptr %31) #5
  call void @llvm.lifetime.start.p0(i64 8, ptr %32) #5
  call void @llvm.lifetime.start.p0(i64 8, ptr %33) #5
  call void @llvm.lifetime.start.p0(i64 8, ptr %34) #5
  call void @llvm.lifetime.start.p0(i64 8, ptr %35) #5
  call void @llvm.lifetime.start.p0(i64 8, ptr %36) #5
  call void @llvm.lifetime.start.p0(i64 8, ptr %37) #5
  call void @llvm.lifetime.start.p0(i64 8, ptr %38) #5
  call void @llvm.lifetime.start.p0(i64 8, ptr %39) #5
  %41 = load ptr, ptr %17, align 8, !tbaa !3
  store ptr %41, ptr %38, align 8, !tbaa !7
  %42 = load ptr, ptr %38, align 8, !tbaa !7
  %43 = getelementptr inbounds nuw %struct.KINMemRec, ptr %42, i32 0, i32 68
  %44 = load ptr, ptr %43, align 8, !tbaa !9
  store ptr %44, ptr %39, align 8, !tbaa !18
  %45 = load ptr, ptr %18, align 8, !tbaa !39
  store ptr %45, ptr %22, align 8, !tbaa !39
  %46 = load ptr, ptr %19, align 8, !tbaa !39
  store ptr %46, ptr %23, align 8, !tbaa !39
  %47 = load ptr, ptr %15, align 8, !tbaa !39
  %48 = call ptr @N_VGetArrayPointer(ptr noundef %47)
  store ptr %48, ptr %33, align 8, !tbaa !42
  %49 = load ptr, ptr %22, align 8, !tbaa !39
  %50 = call ptr @N_VGetArrayPointer(ptr noundef %49)
  store ptr %50, ptr %34, align 8, !tbaa !42
  %51 = load ptr, ptr %14, align 8, !tbaa !39
  %52 = call ptr @N_VGetArrayPointer(ptr noundef %51)
  store ptr %52, ptr %35, align 8, !tbaa !42
  %53 = load ptr, ptr %38, align 8, !tbaa !7
  %54 = getelementptr inbounds nuw %struct.KINMemRec, ptr %53, i32 0, i32 42
  %55 = load ptr, ptr %54, align 8, !tbaa !43
  %56 = call ptr @N_VGetArrayPointer(ptr noundef %55)
  store ptr %56, ptr %37, align 8, !tbaa !42
  %57 = load ptr, ptr %23, align 8, !tbaa !39
  %58 = call ptr @N_VGetArrayPointer(ptr noundef %57)
  store ptr %58, ptr %36, align 8, !tbaa !42
  %59 = load ptr, ptr %14, align 8, !tbaa !39
  %60 = load ptr, ptr %23, align 8, !tbaa !39
  call void @N_VScale(double noundef 1.000000e+00, ptr noundef %59, ptr noundef %60)
  %61 = load i64, ptr %13, align 8, !tbaa !30
  %62 = load i64, ptr %12, align 8, !tbaa !30
  %63 = add nsw i64 %61, %62
  %64 = add nsw i64 %63, 1
  store i64 %64, ptr %28, align 8, !tbaa !30
  %65 = load i64, ptr %28, align 8, !tbaa !30
  %66 = load i64, ptr %11, align 8, !tbaa !30
  %67 = icmp slt i64 %65, %66
  br i1 %67, label %68, label %70

68:                                               ; preds = %9
  %69 = load i64, ptr %28, align 8, !tbaa !30
  br label %72

70:                                               ; preds = %9
  %71 = load i64, ptr %11, align 8, !tbaa !30
  br label %72

72:                                               ; preds = %70, %68
  %73 = phi i64 [ %69, %68 ], [ %71, %70 ]
  store i64 %73, ptr %29, align 8, !tbaa !30
  store i64 1, ptr %25, align 8, !tbaa !30
  br label %74

74:                                               ; preds = %255, %72
  %75 = load i64, ptr %25, align 8, !tbaa !30
  %76 = load i64, ptr %29, align 8, !tbaa !30
  %77 = icmp sle i64 %75, %76
  br i1 %77, label %78, label %258

78:                                               ; preds = %74
  %79 = load i64, ptr %25, align 8, !tbaa !30
  %80 = sub nsw i64 %79, 1
  store i64 %80, ptr %27, align 8, !tbaa !30
  br label %81

81:                                               ; preds = %123, %78
  %82 = load i64, ptr %27, align 8, !tbaa !30
  %83 = load i64, ptr %11, align 8, !tbaa !30
  %84 = icmp slt i64 %82, %83
  br i1 %84, label %85, label %127

85:                                               ; preds = %81
  %86 = load ptr, ptr %38, align 8, !tbaa !7
  %87 = getelementptr inbounds nuw %struct.KINMemRec, ptr %86, i32 0, i32 22
  %88 = load double, ptr %87, align 8, !tbaa !48
  %89 = load ptr, ptr %35, align 8, !tbaa !42
  %90 = load i64, ptr %27, align 8, !tbaa !30
  %91 = getelementptr inbounds double, ptr %89, i64 %90
  %92 = load double, ptr %91, align 8, !tbaa !47
  %93 = call double @SUNRabs(double noundef %92)
  %94 = load ptr, ptr %37, align 8, !tbaa !42
  %95 = load i64, ptr %27, align 8, !tbaa !30
  %96 = getelementptr inbounds double, ptr %94, i64 %95
  %97 = load double, ptr %96, align 8, !tbaa !47
  %98 = call double @SUNRabs(double noundef %97)
  %99 = fdiv double 1.000000e+00, %98
  %100 = fcmp ogt double %93, %99
  br i1 %100, label %101, label %107

101:                                              ; preds = %85
  %102 = load ptr, ptr %35, align 8, !tbaa !42
  %103 = load i64, ptr %27, align 8, !tbaa !30
  %104 = getelementptr inbounds double, ptr %102, i64 %103
  %105 = load double, ptr %104, align 8, !tbaa !47
  %106 = call double @SUNRabs(double noundef %105)
  br label %114

107:                                              ; preds = %85
  %108 = load ptr, ptr %37, align 8, !tbaa !42
  %109 = load i64, ptr %27, align 8, !tbaa !30
  %110 = getelementptr inbounds double, ptr %108, i64 %109
  %111 = load double, ptr %110, align 8, !tbaa !47
  %112 = call double @SUNRabs(double noundef %111)
  %113 = fdiv double 1.000000e+00, %112
  br label %114

114:                                              ; preds = %107, %101
  %115 = phi double [ %106, %101 ], [ %113, %107 ]
  %116 = fmul double %88, %115
  store double %116, ptr %20, align 8, !tbaa !47
  %117 = load double, ptr %20, align 8, !tbaa !47
  %118 = load ptr, ptr %36, align 8, !tbaa !42
  %119 = load i64, ptr %27, align 8, !tbaa !30
  %120 = getelementptr inbounds double, ptr %118, i64 %119
  %121 = load double, ptr %120, align 8, !tbaa !47
  %122 = fadd double %121, %117
  store double %122, ptr %120, align 8, !tbaa !47
  br label %123

123:                                              ; preds = %114
  %124 = load i64, ptr %28, align 8, !tbaa !30
  %125 = load i64, ptr %27, align 8, !tbaa !30
  %126 = add nsw i64 %125, %124
  store i64 %126, ptr %27, align 8, !tbaa !30
  br label %81, !llvm.loop !53

127:                                              ; preds = %81
  %128 = load ptr, ptr %38, align 8, !tbaa !7
  %129 = getelementptr inbounds nuw %struct.KINMemRec, ptr %128, i32 0, i32 1
  %130 = load ptr, ptr %129, align 8, !tbaa !49
  %131 = load ptr, ptr %23, align 8, !tbaa !39
  %132 = load ptr, ptr %22, align 8, !tbaa !39
  %133 = load ptr, ptr %38, align 8, !tbaa !7
  %134 = getelementptr inbounds nuw %struct.KINMemRec, ptr %133, i32 0, i32 2
  %135 = load ptr, ptr %134, align 8, !tbaa !50
  %136 = call i32 %130(ptr noundef %131, ptr noundef %132, ptr noundef %135)
  store i32 %136, ptr %24, align 4, !tbaa !41
  %137 = load i32, ptr %24, align 4, !tbaa !41
  %138 = icmp ne i32 %137, 0
  br i1 %138, label %139, label %140

139:                                              ; preds = %127
  store i32 -1, ptr %10, align 4
  store i32 1, ptr %40, align 4
  br label %264

140:                                              ; preds = %127
  %141 = load i64, ptr %25, align 8, !tbaa !30
  %142 = sub nsw i64 %141, 1
  store i64 %142, ptr %27, align 8, !tbaa !30
  br label %143

143:                                              ; preds = %250, %140
  %144 = load i64, ptr %27, align 8, !tbaa !30
  %145 = load i64, ptr %11, align 8, !tbaa !30
  %146 = icmp slt i64 %144, %145
  br i1 %146, label %147, label %254

147:                                              ; preds = %143
  %148 = load ptr, ptr %35, align 8, !tbaa !42
  %149 = load i64, ptr %27, align 8, !tbaa !30
  %150 = getelementptr inbounds double, ptr %148, i64 %149
  %151 = load double, ptr %150, align 8, !tbaa !47
  %152 = load ptr, ptr %36, align 8, !tbaa !42
  %153 = load i64, ptr %27, align 8, !tbaa !30
  %154 = getelementptr inbounds double, ptr %152, i64 %153
  store double %151, ptr %154, align 8, !tbaa !47
  %155 = load ptr, ptr %16, align 8, !tbaa !40
  %156 = getelementptr inbounds nuw %struct._DlsMat, ptr %155, i32 0, i32 9
  %157 = load ptr, ptr %156, align 8, !tbaa !44
  %158 = load i64, ptr %27, align 8, !tbaa !30
  %159 = getelementptr inbounds ptr, ptr %157, i64 %158
  %160 = load ptr, ptr %159, align 8, !tbaa !42
  %161 = load ptr, ptr %16, align 8, !tbaa !40
  %162 = getelementptr inbounds nuw %struct._DlsMat, ptr %161, i32 0, i32 6
  %163 = load i64, ptr %162, align 8, !tbaa !54
  %164 = getelementptr inbounds double, ptr %160, i64 %163
  store ptr %164, ptr %32, align 8, !tbaa !42
  %165 = load ptr, ptr %38, align 8, !tbaa !7
  %166 = getelementptr inbounds nuw %struct.KINMemRec, ptr %165, i32 0, i32 22
  %167 = load double, ptr %166, align 8, !tbaa !48
  %168 = load ptr, ptr %35, align 8, !tbaa !42
  %169 = load i64, ptr %27, align 8, !tbaa !30
  %170 = getelementptr inbounds double, ptr %168, i64 %169
  %171 = load double, ptr %170, align 8, !tbaa !47
  %172 = call double @SUNRabs(double noundef %171)
  %173 = load ptr, ptr %37, align 8, !tbaa !42
  %174 = load i64, ptr %27, align 8, !tbaa !30
  %175 = getelementptr inbounds double, ptr %173, i64 %174
  %176 = load double, ptr %175, align 8, !tbaa !47
  %177 = call double @SUNRabs(double noundef %176)
  %178 = fdiv double 1.000000e+00, %177
  %179 = fcmp ogt double %172, %178
  br i1 %179, label %180, label %186

180:                                              ; preds = %147
  %181 = load ptr, ptr %35, align 8, !tbaa !42
  %182 = load i64, ptr %27, align 8, !tbaa !30
  %183 = getelementptr inbounds double, ptr %181, i64 %182
  %184 = load double, ptr %183, align 8, !tbaa !47
  %185 = call double @SUNRabs(double noundef %184)
  br label %193

186:                                              ; preds = %147
  %187 = load ptr, ptr %37, align 8, !tbaa !42
  %188 = load i64, ptr %27, align 8, !tbaa !30
  %189 = getelementptr inbounds double, ptr %187, i64 %188
  %190 = load double, ptr %189, align 8, !tbaa !47
  %191 = call double @SUNRabs(double noundef %190)
  %192 = fdiv double 1.000000e+00, %191
  br label %193

193:                                              ; preds = %186, %180
  %194 = phi double [ %185, %180 ], [ %192, %186 ]
  %195 = fmul double %167, %194
  store double %195, ptr %20, align 8, !tbaa !47
  %196 = load double, ptr %20, align 8, !tbaa !47
  %197 = fdiv double 1.000000e+00, %196
  store double %197, ptr %21, align 8, !tbaa !47
  %198 = load i64, ptr %27, align 8, !tbaa !30
  %199 = load i64, ptr %12, align 8, !tbaa !30
  %200 = sub nsw i64 %198, %199
  %201 = icmp sgt i64 0, %200
  br i1 %201, label %202, label %203

202:                                              ; preds = %193
  br label %207

203:                                              ; preds = %193
  %204 = load i64, ptr %27, align 8, !tbaa !30
  %205 = load i64, ptr %12, align 8, !tbaa !30
  %206 = sub nsw i64 %204, %205
  br label %207

207:                                              ; preds = %203, %202
  %208 = phi i64 [ 0, %202 ], [ %206, %203 ]
  store i64 %208, ptr %30, align 8, !tbaa !30
  %209 = load i64, ptr %27, align 8, !tbaa !30
  %210 = load i64, ptr %13, align 8, !tbaa !30
  %211 = add nsw i64 %209, %210
  %212 = load i64, ptr %11, align 8, !tbaa !30
  %213 = sub nsw i64 %212, 1
  %214 = icmp slt i64 %211, %213
  br i1 %214, label %215, label %219

215:                                              ; preds = %207
  %216 = load i64, ptr %27, align 8, !tbaa !30
  %217 = load i64, ptr %13, align 8, !tbaa !30
  %218 = add nsw i64 %216, %217
  br label %222

219:                                              ; preds = %207
  %220 = load i64, ptr %11, align 8, !tbaa !30
  %221 = sub nsw i64 %220, 1
  br label %222

222:                                              ; preds = %219, %215
  %223 = phi i64 [ %218, %215 ], [ %221, %219 ]
  store i64 %223, ptr %31, align 8, !tbaa !30
  %224 = load i64, ptr %30, align 8, !tbaa !30
  store i64 %224, ptr %26, align 8, !tbaa !30
  br label %225

225:                                              ; preds = %246, %222
  %226 = load i64, ptr %26, align 8, !tbaa !30
  %227 = load i64, ptr %31, align 8, !tbaa !30
  %228 = icmp sle i64 %226, %227
  br i1 %228, label %229, label %249

229:                                              ; preds = %225
  %230 = load double, ptr %21, align 8, !tbaa !47
  %231 = load ptr, ptr %34, align 8, !tbaa !42
  %232 = load i64, ptr %26, align 8, !tbaa !30
  %233 = getelementptr inbounds double, ptr %231, i64 %232
  %234 = load double, ptr %233, align 8, !tbaa !47
  %235 = load ptr, ptr %33, align 8, !tbaa !42
  %236 = load i64, ptr %26, align 8, !tbaa !30
  %237 = getelementptr inbounds double, ptr %235, i64 %236
  %238 = load double, ptr %237, align 8, !tbaa !47
  %239 = fsub double %234, %238
  %240 = fmul double %230, %239
  %241 = load ptr, ptr %32, align 8, !tbaa !42
  %242 = load i64, ptr %26, align 8, !tbaa !30
  %243 = load i64, ptr %27, align 8, !tbaa !30
  %244 = sub nsw i64 %242, %243
  %245 = getelementptr inbounds double, ptr %241, i64 %244
  store double %240, ptr %245, align 8, !tbaa !47
  br label %246

246:                                              ; preds = %229
  %247 = load i64, ptr %26, align 8, !tbaa !30
  %248 = add nsw i64 %247, 1
  store i64 %248, ptr %26, align 8, !tbaa !30
  br label %225, !llvm.loop !55

249:                                              ; preds = %225
  br label %250

250:                                              ; preds = %249
  %251 = load i64, ptr %28, align 8, !tbaa !30
  %252 = load i64, ptr %27, align 8, !tbaa !30
  %253 = add nsw i64 %252, %251
  store i64 %253, ptr %27, align 8, !tbaa !30
  br label %143, !llvm.loop !56

254:                                              ; preds = %143
  br label %255

255:                                              ; preds = %254
  %256 = load i64, ptr %25, align 8, !tbaa !30
  %257 = add nsw i64 %256, 1
  store i64 %257, ptr %25, align 8, !tbaa !30
  br label %74, !llvm.loop !57

258:                                              ; preds = %74
  %259 = load i64, ptr %29, align 8, !tbaa !30
  %260 = load ptr, ptr %39, align 8, !tbaa !18
  %261 = getelementptr inbounds nuw %struct.KINDlsMemRec, ptr %260, i32 0, i32 13
  %262 = load i64, ptr %261, align 8, !tbaa !35
  %263 = add nsw i64 %262, %259
  store i64 %263, ptr %261, align 8, !tbaa !35
  store i32 0, ptr %10, align 4
  store i32 1, ptr %40, align 4
  br label %264

264:                                              ; preds = %258, %139
  call void @llvm.lifetime.end.p0(i64 8, ptr %39) #5
  call void @llvm.lifetime.end.p0(i64 8, ptr %38) #5
  call void @llvm.lifetime.end.p0(i64 8, ptr %37) #5
  call void @llvm.lifetime.end.p0(i64 8, ptr %36) #5
  call void @llvm.lifetime.end.p0(i64 8, ptr %35) #5
  call void @llvm.lifetime.end.p0(i64 8, ptr %34) #5
  call void @llvm.lifetime.end.p0(i64 8, ptr %33) #5
  call void @llvm.lifetime.end.p0(i64 8, ptr %32) #5
  call void @llvm.lifetime.end.p0(i64 8, ptr %31) #5
  call void @llvm.lifetime.end.p0(i64 8, ptr %30) #5
  call void @llvm.lifetime.end.p0(i64 8, ptr %29) #5
  call void @llvm.lifetime.end.p0(i64 8, ptr %28) #5
  call void @llvm.lifetime.end.p0(i64 8, ptr %27) #5
  call void @llvm.lifetime.end.p0(i64 8, ptr %26) #5
  call void @llvm.lifetime.end.p0(i64 8, ptr %25) #5
  call void @llvm.lifetime.end.p0(i64 4, ptr %24) #5
  call void @llvm.lifetime.end.p0(i64 8, ptr %23) #5
  call void @llvm.lifetime.end.p0(i64 8, ptr %22) #5
  call void @llvm.lifetime.end.p0(i64 8, ptr %21) #5
  call void @llvm.lifetime.end.p0(i64 8, ptr %20) #5
  %265 = load i32, ptr %10, align 4
  ret i32 %265
}