; Function Attrs: nounwind uwtable
define range(i32 -1, 1) i32 @kinDlsBandDQJac(i64 noundef %0, i64 noundef %1, i64 noundef %2, ptr noundef %3, ptr noundef %4, ptr noundef readonly captures(none) %5, ptr noundef readonly captures(none) %6, ptr noundef %7, ptr noundef %8) local_unnamed_addr #0 {
  %10 = getelementptr inbounds nuw i8, ptr %6, i64 496
  %11 = load ptr, ptr %10, align 8, !tbaa !3
  %12 = tail call ptr @N_VGetArrayPointer(ptr noundef %4) #6
  %13 = tail call ptr @N_VGetArrayPointer(ptr noundef %7) #6
  %14 = tail call ptr @N_VGetArrayPointer(ptr noundef %3) #6
  %15 = getelementptr inbounds nuw i8, ptr %6, i64 296
  %16 = load ptr, ptr %15, align 8, !tbaa !31
  %17 = tail call ptr @N_VGetArrayPointer(ptr noundef %16) #6
  %18 = tail call ptr @N_VGetArrayPointer(ptr noundef %8) #6
  tail call void @N_VScale(double noundef 1.000000e+00, ptr noundef %3, ptr noundef %8) #6
  %19 = add i64 %1, 1
  %20 = add i64 %19, %2
  %21 = tail call i64 @llvm.smin.i64(i64 %20, i64 %0)
  %.not106 = icmp slt i64 %21, 1
  br i1 %.not106, label %._crit_edge110, label %.lr.ph109

.lr.ph109:                                        ; preds = %9
  %22 = getelementptr inbounds nuw i8, ptr %6, i64 136
  %23 = getelementptr inbounds nuw i8, ptr %6, i64 8
  %24 = getelementptr inbounds nuw i8, ptr %6, i64 16
  %25 = getelementptr inbounds nuw i8, ptr %5, i64 72
  %26 = getelementptr inbounds nuw i8, ptr %5, i64 48
  %27 = add nsw i64 %0, -1
  br label %.lr.ph.preheader

.lr.ph.preheader:                                 ; preds = %._crit_edge105, %.lr.ph109
  %.088107 = phi i64 [ 1, %.lr.ph109 ], [ %96, %._crit_edge105 ]
  %28 = add nsw i64 %.088107, -1
  br label %.lr.ph

.lr.ph:                                           ; preds = %.lr.ph.preheader, %45
  %.09097 = phi i64 [ %51, %45 ], [ %28, %.lr.ph.preheader ]
  %29 = load double, ptr %22, align 8, !tbaa !37
  %30 = getelementptr inbounds double, ptr %14, i64 %.09097
  %31 = load double, ptr %30, align 8, !tbaa !36
  %32 = tail call double @SUNRabs(double noundef %31) #6
  %33 = getelementptr inbounds double, ptr %17, i64 %.09097
  %34 = load double, ptr %33, align 8, !tbaa !36
  %35 = tail call double @SUNRabs(double noundef %34) #6
  %36 = fdiv double 1.000000e+00, %35
  %37 = fcmp ogt double %32, %36
  br i1 %37, label %38, label %41

38:                                               ; preds = %.lr.ph
  %39 = load double, ptr %30, align 8, !tbaa !36
  %40 = tail call double @SUNRabs(double noundef %39) #6
  br label %45

41:                                               ; preds = %.lr.ph
  %42 = load double, ptr %33, align 8, !tbaa !36
  %43 = tail call double @SUNRabs(double noundef %42) #6
  %44 = fdiv double 1.000000e+00, %43
  br label %45

45:                                               ; preds = %41, %38
  %46 = phi double [ %40, %38 ], [ %44, %41 ]
  %47 = fmul double %29, %46
  %48 = getelementptr inbounds double, ptr %18, i64 %.09097
  %49 = load double, ptr %48, align 8, !tbaa !36
  %50 = fadd double %49, %47
  store double %50, ptr %48, align 8, !tbaa !36
  %51 = add nsw i64 %.09097, %20
  %52 = icmp slt i64 %51, %0
  br i1 %52, label %.lr.ph, label %._crit_edge, !llvm.loop !42

._crit_edge:                                      ; preds = %45
  %53 = load ptr, ptr %23, align 8, !tbaa !38
  %54 = load ptr, ptr %24, align 8, !tbaa !39
  %55 = tail call i32 %53(ptr noundef %8, ptr noundef %7, ptr noundef %54) #6
  %.not95 = icmp eq i32 %55, 0
  br i1 %.not95, label %.lr.ph104, label %.loopexit

.lr.ph104:                                        ; preds = %._crit_edge, %._crit_edge102
  %.1103 = phi i64 [ %94, %._crit_edge102 ], [ %28, %._crit_edge ]
  %56 = getelementptr inbounds double, ptr %14, i64 %.1103
  %57 = load double, ptr %56, align 8, !tbaa !36
  %58 = getelementptr inbounds double, ptr %18, i64 %.1103
  store double %57, ptr %58, align 8, !tbaa !36
  %59 = load ptr, ptr %25, align 8, !tbaa !32
  %60 = getelementptr inbounds ptr, ptr %59, i64 %.1103
  %61 = load ptr, ptr %60, align 8, !tbaa !35
  %62 = load i64, ptr %26, align 8, !tbaa !43
  %63 = getelementptr inbounds double, ptr %61, i64 %62
  %64 = load double, ptr %22, align 8, !tbaa !37
  %65 = tail call double @SUNRabs(double noundef %57) #6
  %66 = getelementptr inbounds double, ptr %17, i64 %.1103
  %67 = load double, ptr %66, align 8, !tbaa !36
  %68 = tail call double @SUNRabs(double noundef %67) #6
  %69 = fdiv double 1.000000e+00, %68
  %70 = fcmp ogt double %65, %69
  br i1 %70, label %71, label %74

71:                                               ; preds = %.lr.ph104
  %72 = load double, ptr %56, align 8, !tbaa !36
  %73 = tail call double @SUNRabs(double noundef %72) #6
  br label %78

74:                                               ; preds = %.lr.ph104
  %75 = load double, ptr %66, align 8, !tbaa !36
  %76 = tail call double @SUNRabs(double noundef %75) #6
  %77 = fdiv double 1.000000e+00, %76
  br label %78

78:                                               ; preds = %74, %71
  %79 = phi double [ %73, %71 ], [ %77, %74 ]
  %80 = fmul double %64, %79
  %81 = fdiv double 1.000000e+00, %80
  %82 = sub nsw i64 %.1103, %1
  %83 = tail call i64 @llvm.smax.i64(i64 %82, i64 0)
  %84 = add nsw i64 %.1103, %2
  %. = tail call i64 @llvm.smin.i64(i64 %84, i64 %27)
  %.not9698 = icmp sgt i64 %83, %.
  br i1 %.not9698, label %._crit_edge102, label %.lr.ph101

.lr.ph101:                                        ; preds = %78, %.lr.ph101
  %.08999 = phi i64 [ %93, %.lr.ph101 ], [ %83, %78 ]
  %85 = getelementptr inbounds nuw double, ptr %13, i64 %.08999
  %86 = load double, ptr %85, align 8, !tbaa !36
  %87 = getelementptr inbounds nuw double, ptr %12, i64 %.08999
  %88 = load double, ptr %87, align 8, !tbaa !36
  %89 = fsub double %86, %88
  %90 = fmul double %81, %89
  %91 = sub nsw i64 %.08999, %.1103
  %92 = getelementptr inbounds double, ptr %63, i64 %91
  store double %90, ptr %92, align 8, !tbaa !36
  %93 = add nuw nsw i64 %.08999, 1
  %.not96.not = icmp slt i64 %.08999, %.
  br i1 %.not96.not, label %.lr.ph101, label %._crit_edge102, !llvm.loop !44

._crit_edge102:                                   ; preds = %.lr.ph101, %78
  %94 = add nsw i64 %.1103, %20
  %95 = icmp slt i64 %94, %0
  br i1 %95, label %.lr.ph104, label %._crit_edge105, !llvm.loop !45

._crit_edge105:                                   ; preds = %._crit_edge102
  %96 = add nuw i64 %.088107, 1
  %exitcond.not = icmp eq i64 %.088107, %21
  br i1 %exitcond.not, label %._crit_edge110, label %.lr.ph.preheader, !llvm.loop !46

._crit_edge110:                                   ; preds = %._crit_edge105, %9
  %97 = getelementptr inbounds nuw i8, ptr %11, i64 104
  %98 = load i64, ptr %97, align 8, !tbaa !29
  %99 = add nsw i64 %98, %21
  store i64 %99, ptr %97, align 8, !tbaa !29
  br label %.loopexit

.loopexit:                                        ; preds = %._crit_edge, %._crit_edge110
  %.0 = phi i32 [ 0, %._crit_edge110 ], [ -1, %._crit_edge ]
  ret i32 %.0
}